; ModuleID = '15/658.c'
source_filename = "15/658.c"
target datalayout = "e-m:e-p270:32:32-p271:32:32-p272:64:64-i64:64-f80:128-n8:16:32:64-S128"
target triple = "x86_64-pc-linux-gnu"

@.str = private unnamed_addr constant [3 x i8] c"%d\00", align 1

; Function Attrs: noinline nounwind uwtable
define dso_local void @main() #0 {
  %1 = alloca i32, align 4
  %2 = alloca i32, align 4
  %3 = alloca i32, align 4
  %4 = alloca i32, align 4
  %5 = alloca i32, align 4
  %6 = alloca i32, align 4
  store i32 -1, i32* %5, align 4
  %7 = call i32 (i8*, ...) @__isoc99_scanf(i8* getelementptr inbounds ([3 x i8], [3 x i8]* @.str, i64 0, i64 0), i32* %1)
  store i32 0, i32* %2, align 4
  br label %8

8:                                                ; preds = %41, %0
  %9 = load i32, i32* %2, align 4
  %10 = load i32, i32* %1, align 4
  %11 = icmp slt i32 %9, %10
  br i1 %11, label %12, label %44

12:                                               ; preds = %8
  store i32 0, i32* %3, align 4
  br label %13

13:                                               ; preds = %37, %12
  %14 = load i32, i32* %3, align 4
  %15 = load i32, i32* %1, align 4
  %16 = icmp slt i32 %14, %15
  br i1 %16, label %17, label %40

17:                                               ; preds = %13
  %18 = call i32 (i8*, ...) @__isoc99_scanf(i8* getelementptr inbounds ([3 x i8], [3 x i8]* @.str, i64 0, i64 0), i32* %4)
  %19 = load i32, i32* %4, align 4
  %20 = icmp eq i32 %19, 0
  br i1 %20, label %21, label %36

21:                                               ; preds = %17
  %22 = load i32, i32* %5, align 4
  %23 = icmp eq i32 %22, -1
  br i1 %23, label %24, label %30

24:                                               ; preds = %21
  %25 = load i32, i32* %2, align 4
  %26 = load i32, i32* %1, align 4
  %27 = mul nsw i32 %25, %26
  %28 = load i32, i32* %3, align 4
  %29 = add nsw i32 %27, %28
  store i32 %29, i32* %5, align 4
  br label %30

30:                                               ; preds = %24, %21
  %31 = load i32, i32* %2, align 4
  %32 = load i32, i32* %1, align 4
  %33 = mul nsw i32 %31, %32
  %34 = load i32, i32* %3, align 4
  %35 = add nsw i32 %33, %34
  store i32 %35, i32* %6, align 4
  br label %36

36:                                               ; preds = %30, %17
  br label %37

37:                                               ; preds = %36
  %38 = load i32, i32* %3, align 4
  %39 = add nsw i32 %38, 1
  store i32 %39, i32* %3, align 4
  br label %13

40:                                               ; preds = %13
  br label %41

41:                                               ; preds = %40
  %42 = load i32, i32* %2, align 4
  %43 = add nsw i32 %42, 1
  store i32 %43, i32* %2, align 4
  br label %8

44:                                               ; preds = %8
  %45 = load i32, i32* %6, align 4
  %46 = load i32, i32* %1, align 4
  %47 = sdiv i32 %45, %46
  %48 = load i32, i32* %5, align 4
  %49 = load i32, i32* %1, align 4
  %50 = sdiv i32 %48, %49
  %51 = sub nsw i32 %47, %50
  %52 = sub nsw i32 %51, 1
  %53 = load i32, i32* %6, align 4
  %54 = load i32, i32* %1, align 4
  %55 = srem i32 %53, %54
  %56 = load i32, i32* %5, align 4
  %57 = load i32, i32* %1, align 4
  %58 = srem i32 %56, %57
  %59 = sub nsw i32 %55, %58
  %60 = sub nsw i32 %59, 1
  %61 = mul nsw i32 %52, %60
  %62 = call i32 (i8*, ...) @printf(i8* getelementptr inbounds ([3 x i8], [3 x i8]* @.str, i64 0, i64 0), i32 %61)
  ret void
}

declare dso_local i32 @__isoc99_scanf(i8*, ...) #1

declare dso_local i32 @printf(i8*, ...) #1


!llvm.module.flags = !{!0}
!llvm.ident = !{!1}

!0 = !{i32 1, !"wchar_size", i32 4}
!1 = !{!"clang version 10.0.0-4ubuntu1 "}
